target datalayout = "e-m:e-p270:32:32-p271:32:32-p272:64:64-i64:64-i128:128-f80:128-n8:16:32:64-S128"
target triple = "x86_64-pc-linux-gnu"

; Function Attrs: inlinehint nounwind sspstrong willreturn memory(none) uwtable
define internal zeroext i1 @RB_TEST(i64 noundef %0) #5 {
  %2 = alloca i64, align 8
  store i64 %0, ptr %2, align 8, !tbaa !7
  %3 = load i64, ptr %2, align 8, !tbaa !7
  %4 = and i64 %3, -5
  %5 = icmp ne i64 %4, 0
  ret i1 %5
}

; Function Attrs: nounwind sspstrong uwtable
define internal i32 @any_p_i_pattern(i64 noundef %0, i64 noundef %1, i64 noundef %2) #0 {
  %4 = alloca i32, align 4
  %5 = alloca i64, align 8
  %6 = alloca i64, align 8
  %7 = alloca i64, align 8
  %8 = alloca i64, align 8
  %9 = alloca i32, align 4
  store i64 %0, ptr %5, align 8, !tbaa !7
  store i64 %1, ptr %6, align 8, !tbaa !7
  store i64 %2, ptr %7, align 8, !tbaa !7
  call void @llvm.lifetime.start.p0(i64 8, ptr %8) #28
  %10 = load i64, ptr %7, align 8, !tbaa !7
  %11 = inttoptr i64 %10 to ptr
  %12 = getelementptr i64, ptr %11, i64 1
  %13 = load i64, ptr %12, align 8, !tbaa !7
  %14 = load i64, ptr %5, align 8, !tbaa !7
  %15 = load i64, ptr %6, align 8, !tbaa !7
  %16 = call i64 @rb_assoc_new(i64 noundef %14, i64 noundef %15)
  %17 = call i64 (i64, i64, i32, ...) @rb_funcall(i64 noundef %13, i64 noundef 141, i32 noundef 1, i64 noundef %16)
  store i64 %17, ptr %8, align 8, !tbaa !7
  %18 = load i64, ptr %8, align 8, !tbaa !7
  %19 = call zeroext i1 @RB_TEST(i64 noundef %18) #27
  br i1 %19, label %20, label %23

20:                                               ; preds = %3
  %21 = load i64, ptr %7, align 8, !tbaa !7
  %22 = inttoptr i64 %21 to ptr
  store i64 20, ptr %22, align 8, !tbaa !7
  store i32 1, ptr %4, align 4
  store i32 1, ptr %9, align 4
  br label %24

23:                                               ; preds = %3
  store i32 0, ptr %4, align 4
  store i32 1, ptr %9, align 4
  br label %24

24:                                               ; preds = %23, %20
  call void @llvm.lifetime.end.p0(i64 8, ptr %8) #28
  %25 = load i32, ptr %4, align 4
  ret i32 %25
}