; Function Attrs: nounwind sspstrong uwtable
define internal range(i32 0, 2) i32 @any_p_i_pattern(i64 noundef %0, i64 noundef %1, i64 noundef %2) #0 {
  %4 = inttoptr i64 %2 to ptr
  %5 = getelementptr i8, ptr %4, i64 8
  %6 = load i64, ptr %5, align 8, !tbaa !7
  %7 = tail call i64 @rb_assoc_new(i64 noundef %0, i64 noundef %1) #28
  %8 = tail call i64 (i64, i64, i32, ...) @rb_funcall(i64 noundef %6, i64 noundef 141, i32 noundef 1, i64 noundef %7) #28
  %9 = and i64 %8, -5
  %.not = icmp eq i64 %9, 0
  br i1 %.not, label %11, label %10

10:                                               ; preds = %3
  store i64 20, ptr %4, align 8, !tbaa !7
  br label %11

11:                                               ; preds = %3, %10
  %.0 = phi i32 [ 1, %10 ], [ 0, %3 ]
  ret i32 %.0
}